; ModuleID = '20/292.c'
source_filename = "20/292.c"
target datalayout = "e-m:e-p270:32:32-p271:32:32-p272:64:64-i64:64-f80:128-n8:16:32:64-S128"
target triple = "x86_64-pc-linux-gnu"

@.str = private unnamed_addr constant [3 x i8] c"%c\00", align 1
@.str.1 = private unnamed_addr constant [7 x i8] c"%c%c%c\00", align 1
@.str.2 = private unnamed_addr constant [2 x i8] c"\0A\00", align 1

; Function Attrs: noinline nounwind uwtable
define dso_local void @main() #0 {
  %1 = alloca [1000 x [15 x i8]], align 16
  %2 = alloca i32, align 4
  %3 = alloca i32, align 4
  %4 = alloca i32, align 4
  %5 = alloca i32, align 4
  %6 = alloca i32, align 4
  %7 = alloca i32, align 4
  %8 = bitcast [1000 x [15 x i8]]* %1 to i8*
  call void @llvm.memset.p0i8.i64(i8* align 16 %8, i8 0, i64 15000, i1 false)
  store i32 0, i32* %3, align 4
  br label %9

9:                                                ; preds = %28, %0
  %10 = load i32, i32* %3, align 4
  %11 = icmp slt i32 %10, 1000
  br i1 %11, label %12, label %31

12:                                               ; preds = %9
  %13 = load i32, i32* %3, align 4
  %14 = sext i32 %13 to i64
  %15 = getelementptr inbounds [1000 x [15 x i8]], [1000 x [15 x i8]]* %1, i64 0, i64 %14
  %16 = getelementptr inbounds [15 x i8], [15 x i8]* %15, i64 0, i64 0
  %17 = call i32 (i8*, ...) bitcast (i32 (...)* @gets to i32 (i8*, ...)*)(i8* %16)
  %18 = load i32, i32* %3, align 4
  %19 = sext i32 %18 to i64
  %20 = getelementptr inbounds [1000 x [15 x i8]], [1000 x [15 x i8]]* %1, i64 0, i64 %19
  %21 = getelementptr inbounds [15 x i8], [15 x i8]* %20, i64 0, i64 0
  %22 = call i64 @strlen(i8* %21) #4
  %23 = trunc i64 %22 to i32
  store i32 %23, i32* %2, align 4
  %24 = load i32, i32* %2, align 4
  %25 = icmp eq i32 %24, 0
  br i1 %25, label %26, label %27

26:                                               ; preds = %12
  br label %31

27:                                               ; preds = %12
  br label %28

28:                                               ; preds = %27
  %29 = load i32, i32* %3, align 4
  %30 = add nsw i32 %29, 1
  store i32 %30, i32* %3, align 4
  br label %9

31:                                               ; preds = %26, %9
  %32 = load i32, i32* %3, align 4
  store i32 %32, i32* %5, align 4
  store i32 0, i32* %3, align 4
  br label %33

33:                                               ; preds = %149, %31
  %34 = load i32, i32* %3, align 4
  %35 = load i32, i32* %5, align 4
  %36 = icmp slt i32 %34, %35
  br i1 %36, label %37, label %152

37:                                               ; preds = %33
  %38 = load i32, i32* %3, align 4
  %39 = sext i32 %38 to i64
  %40 = getelementptr inbounds [1000 x [15 x i8]], [1000 x [15 x i8]]* %1, i64 0, i64 %39
  %41 = getelementptr inbounds [15 x i8], [15 x i8]* %40, i64 0, i64 0
  %42 = load i8, i8* %41, align 1
  %43 = sext i8 %42 to i32
  store i32 %43, i32* %6, align 4
  store i32 0, i32* %7, align 4
  %44 = load i32, i32* %3, align 4
  %45 = sext i32 %44 to i64
  %46 = getelementptr inbounds [1000 x [15 x i8]], [1000 x [15 x i8]]* %1, i64 0, i64 %45
  %47 = getelementptr inbounds [15 x i8], [15 x i8]* %46, i64 0, i64 0
  %48 = call i64 @strlen(i8* %47) #4
  %49 = trunc i64 %48 to i32
  store i32 %49, i32* %2, align 4
  store i32 0, i32* %4, align 4
  br label %50

50:                                               ; preds = %77, %37
  %51 = load i32, i32* %4, align 4
  %52 = load i32, i32* %2, align 4
  %53 = sub nsw i32 %52, 4
  %54 = icmp slt i32 %51, %53
  br i1 %54, label %55, label %80

55:                                               ; preds = %50
  %56 = load i32, i32* %3, align 4
  %57 = sext i32 %56 to i64
  %58 = getelementptr inbounds [1000 x [15 x i8]], [1000 x [15 x i8]]* %1, i64 0, i64 %57
  %59 = load i32, i32* %4, align 4
  %60 = sext i32 %59 to i64
  %61 = getelementptr inbounds [15 x i8], [15 x i8]* %58, i64 0, i64 %60
  %62 = load i8, i8* %61, align 1
  %63 = sext i8 %62 to i32
  %64 = load i32, i32* %6, align 4
  %65 = icmp sgt i32 %63, %64
  br i1 %65, label %66, label %76

66:                                               ; preds = %55
  %67 = load i32, i32* %3, align 4
  %68 = sext i32 %67 to i64
  %69 = getelementptr inbounds [1000 x [15 x i8]], [1000 x [15 x i8]]* %1, i64 0, i64 %68
  %70 = load i32, i32* %4, align 4
  %71 = sext i32 %70 to i64
  %72 = getelementptr inbounds [15 x i8], [15 x i8]* %69, i64 0, i64 %71
  %73 = load i8, i8* %72, align 1
  %74 = sext i8 %73 to i32
  store i32 %74, i32* %6, align 4
  %75 = load i32, i32* %4, align 4
  store i32 %75, i32* %7, align 4
  br label %76

76:                                               ; preds = %66, %55
  br label %77

77:                                               ; preds = %76
  %78 = load i32, i32* %4, align 4
  %79 = add nsw i32 %78, 1
  store i32 %79, i32* %4, align 4
  br label %50

80:                                               ; preds = %50
  store i32 0, i32* %4, align 4
  br label %81

81:                                               ; preds = %95, %80
  %82 = load i32, i32* %4, align 4
  %83 = load i32, i32* %7, align 4
  %84 = icmp sle i32 %82, %83
  br i1 %84, label %85, label %98

85:                                               ; preds = %81
  %86 = load i32, i32* %3, align 4
  %87 = sext i32 %86 to i64
  %88 = getelementptr inbounds [1000 x [15 x i8]], [1000 x [15 x i8]]* %1, i64 0, i64 %87
  %89 = load i32, i32* %4, align 4
  %90 = sext i32 %89 to i64
  %91 = getelementptr inbounds [15 x i8], [15 x i8]* %88, i64 0, i64 %90
  %92 = load i8, i8* %91, align 1
  %93 = sext i8 %92 to i32
  %94 = call i32 (i8*, ...) @printf(i8* getelementptr inbounds ([3 x i8], [3 x i8]* @.str, i64 0, i64 0), i32 %93)
  br label %95

95:                                               ; preds = %85
  %96 = load i32, i32* %4, align 4
  %97 = add nsw i32 %96, 1
  store i32 %97, i32* %4, align 4
  br label %81

98:                                               ; preds = %81
  %99 = load i32, i32* %3, align 4
  %100 = sext i32 %99 to i64
  %101 = getelementptr inbounds [1000 x [15 x i8]], [1000 x [15 x i8]]* %1, i64 0, i64 %100
  %102 = load i32, i32* %2, align 4
  %103 = sub nsw i32 %102, 3
  %104 = sext i32 %103 to i64
  %105 = getelementptr inbounds [15 x i8], [15 x i8]* %101, i64 0, i64 %104
  %106 = load i8, i8* %105, align 1
  %107 = sext i8 %106 to i32
  %108 = load i32, i32* %3, align 4
  %109 = sext i32 %108 to i64
  %110 = getelementptr inbounds [1000 x [15 x i8]], [1000 x [15 x i8]]* %1, i64 0, i64 %109
  %111 = load i32, i32* %2, align 4
  %112 = sub nsw i32 %111, 2
  %113 = sext i32 %112 to i64
  %114 = getelementptr inbounds [15 x i8], [15 x i8]* %110, i64 0, i64 %113
  %115 = load i8, i8* %114, align 1
  %116 = sext i8 %115 to i32
  %117 = load i32, i32* %3, align 4
  %118 = sext i32 %117 to i64
  %119 = getelementptr inbounds [1000 x [15 x i8]], [1000 x [15 x i8]]* %1, i64 0, i64 %118
  %120 = load i32, i32* %2, align 4
  %121 = sub nsw i32 %120, 1
  %122 = sext i32 %121 to i64
  %123 = getelementptr inbounds [15 x i8], [15 x i8]* %119, i64 0, i64 %122
  %124 = load i8, i8* %123, align 1
  %125 = sext i8 %124 to i32
  %126 = call i32 (i8*, ...) @printf(i8* getelementptr inbounds ([7 x i8], [7 x i8]* @.str.1, i64 0, i64 0), i32 %107, i32 %116, i32 %125)
  %127 = load i32, i32* %7, align 4
  %128 = add nsw i32 %127, 1
  store i32 %128, i32* %4, align 4
  br label %129

129:                                              ; preds = %144, %98
  %130 = load i32, i32* %4, align 4
  %131 = load i32, i32* %2, align 4
  %132 = sub nsw i32 %131, 4
  %133 = icmp slt i32 %130, %132
  br i1 %133, label %134, label %147

134:                                              ; preds = %129
  %135 = load i32, i32* %3, align 4
  %136 = sext i32 %135 to i64
  %137 = getelementptr inbounds [1000 x [15 x i8]], [1000 x [15 x i8]]* %1, i64 0, i64 %136
  %138 = load i32, i32* %4, align 4
  %139 = sext i32 %138 to i64
  %140 = getelementptr inbounds [15 x i8], [15 x i8]* %137, i64 0, i64 %139
  %141 = load i8, i8* %140, align 1
  %142 = sext i8 %141 to i32
  %143 = call i32 (i8*, ...) @printf(i8* getelementptr inbounds ([3 x i8], [3 x i8]* @.str, i64 0, i64 0), i32 %142)
  br label %144

144:                                              ; preds = %134
  %145 = load i32, i32* %4, align 4
  %146 = add nsw i32 %145, 1
  store i32 %146, i32* %4, align 4
  br label %129

147:                                              ; preds = %129
  %148 = call i32 (i8*, ...) @printf(i8* getelementptr inbounds ([2 x i8], [2 x i8]* @.str.2, i64 0, i64 0))
  br label %149

149:                                              ; preds = %147
  %150 = load i32, i32* %3, align 4
  %151 = add nsw i32 %150, 1
  store i32 %151, i32* %3, align 4
  br label %33

152:                                              ; preds = %33
  ret void
}

; Function Attrs: argmemonly nounwind willreturn
declare void @llvm.memset.p0i8.i64(i8* nocapture writeonly, i8, i64, i1 immarg) #1

declare dso_local i32 @gets(...) #2

; Function Attrs: nounwind readonly
declare dso_local i64 @strlen(i8*) #3

declare dso_local i32 @printf(i8*, ...) #2


!llvm.module.flags = !{!0}
!llvm.ident = !{!1}

!0 = !{i32 1, !"wchar_size", i32 4}
!1 = !{!"clang version 10.0.0-4ubuntu1 "}
